#include <math.h>
#include <stdio.h>
#include <stdlib.h>
#include <string.h>

main()
{
	int a[5],m,n;
	long f;
	scanf("%ld",&f);
	if (f>9999) n=5;
	else if (f>999) n=4;
	else if (f>99) n=3;
	else if (f>9) n=2;
	else n=1;
	m=n;
	while(n>0)
	{
		a[n]=f%10;
		f=f/10;
		n=n-1;
	}
	n=m;
	while(n>0)
	{
		printf("%d",a[n]);
		n=n-1;
	}
	printf("\n");
}
