; ModuleID = '56/610.c'
source_filename = "56/610.c"
target datalayout = "e-m:e-p270:32:32-p271:32:32-p272:64:64-i64:64-f80:128-n8:16:32:64-S128"
target triple = "x86_64-pc-linux-gnu"

@.str = private unnamed_addr constant [4 x i8] c"%ld\00", align 1
@.str.1 = private unnamed_addr constant [3 x i8] c"%d\00", align 1
@.str.2 = private unnamed_addr constant [2 x i8] c"\0A\00", align 1

; Function Attrs: noinline nounwind uwtable
define dso_local i32 @main() #0 {
  %1 = alloca i32, align 4
  %2 = alloca [5 x i32], align 16
  %3 = alloca i32, align 4
  %4 = alloca i32, align 4
  %5 = alloca i64, align 8
  store i32 0, i32* %1, align 4
  %6 = call i32 (i8*, ...) @__isoc99_scanf(i8* getelementptr inbounds ([4 x i8], [4 x i8]* @.str, i64 0, i64 0), i64* %5)
  %7 = load i64, i64* %5, align 8
  %8 = icmp sgt i64 %7, 9999
  br i1 %8, label %9, label %10

9:                                                ; preds = %0
  store i32 5, i32* %4, align 4
  br label %26

10:                                               ; preds = %0
  %11 = load i64, i64* %5, align 8
  %12 = icmp sgt i64 %11, 999
  br i1 %12, label %13, label %14

13:                                               ; preds = %10
  store i32 4, i32* %4, align 4
  br label %25

14:                                               ; preds = %10
  %15 = load i64, i64* %5, align 8
  %16 = icmp sgt i64 %15, 99
  br i1 %16, label %17, label %18

17:                                               ; preds = %14
  store i32 3, i32* %4, align 4
  br label %24

18:                                               ; preds = %14
  %19 = load i64, i64* %5, align 8
  %20 = icmp sgt i64 %19, 9
  br i1 %20, label %21, label %22

21:                                               ; preds = %18
  store i32 2, i32* %4, align 4
  br label %23

22:                                               ; preds = %18
  store i32 1, i32* %4, align 4
  br label %23

23:                                               ; preds = %22, %21
  br label %24

24:                                               ; preds = %23, %17
  br label %25

25:                                               ; preds = %24, %13
  br label %26

26:                                               ; preds = %25, %9
  %27 = load i32, i32* %4, align 4
  store i32 %27, i32* %3, align 4
  br label %28

28:                                               ; preds = %31, %26
  %29 = load i32, i32* %4, align 4
  %30 = icmp sgt i32 %29, 0
  br i1 %30, label %31, label %42

31:                                               ; preds = %28
  %32 = load i64, i64* %5, align 8
  %33 = srem i64 %32, 10
  %34 = trunc i64 %33 to i32
  %35 = load i32, i32* %4, align 4
  %36 = sext i32 %35 to i64
  %37 = getelementptr inbounds [5 x i32], [5 x i32]* %2, i64 0, i64 %36
  store i32 %34, i32* %37, align 4
  %38 = load i64, i64* %5, align 8
  %39 = sdiv i64 %38, 10
  store i64 %39, i64* %5, align 8
  %40 = load i32, i32* %4, align 4
  %41 = sub nsw i32 %40, 1
  store i32 %41, i32* %4, align 4
  br label %28

42:                                               ; preds = %28
  %43 = load i32, i32* %3, align 4
  store i32 %43, i32* %4, align 4
  br label %44

44:                                               ; preds = %47, %42
  %45 = load i32, i32* %4, align 4
  %46 = icmp sgt i32 %45, 0
  br i1 %46, label %47, label %55

47:                                               ; preds = %44
  %48 = load i32, i32* %4, align 4
  %49 = sext i32 %48 to i64
  %50 = getelementptr inbounds [5 x i32], [5 x i32]* %2, i64 0, i64 %49
  %51 = load i32, i32* %50, align 4
  %52 = call i32 (i8*, ...) @printf(i8* getelementptr inbounds ([3 x i8], [3 x i8]* @.str.1, i64 0, i64 0), i32 %51)
  %53 = load i32, i32* %4, align 4
  %54 = sub nsw i32 %53, 1
  store i32 %54, i32* %4, align 4
  br label %44

55:                                               ; preds = %44
  %56 = call i32 (i8*, ...) @printf(i8* getelementptr inbounds ([2 x i8], [2 x i8]* @.str.2, i64 0, i64 0))
  %57 = load i32, i32* %1, align 4
  ret i32 %57
}

declare dso_local i32 @__isoc99_scanf(i8*, ...) #1

declare dso_local i32 @printf(i8*, ...) #1


!llvm.module.flags = !{!0}
!llvm.ident = !{!1}

!0 = !{i32 1, !"wchar_size", i32 4}
!1 = !{!"clang version 10.0.0-4ubuntu1 "}
